(lp0
(dp1
I0
(dp2
Veurope
p3
I80
sVsjwhate
p4
I14
sVHunting
p5
I27
sVOttawaSenators
p6
I8
sVSargonofAkkad
p7
I21
sVMGTOW
p8
I2186
sVholocaust
p9
I5
sVKotakuInAction
p10
I76
sVTheRedPill
p11
I158
sVmilliondollarextreme
p12
I1083
sVmetacanada
p13
I13
sVwatchpeopledie
p14
I21
sVhockey
p15
I35
sVThe_Donald
p16
I1307
sVpics
p17
I84
sVAnarcho_Capitalism
p18
I8
sVSocialJusticeInAction
p19
I22
sVdepression
p20
I5
sVuncensorednews
p21
I148
ssI1
(dp22
VStarWars
p23
I3409
sVnews
p24
I3718
ssI2
(dp25
VDebateAltRight
p26
I84
sVpics
p27
I759
sVPolycentric_Law
p28
I5
sVLibertarian
p29
I860
sVThe_Donald
p30
I261
sVAnarcho_Capitalism
p31
I1303
ssI3
(dp32
VMensRights
p33
I37
sVtodayilearned
p34
I22
sVConservative
p35
I11
sVPoliticalDiscussion
p36
I531
sVOneY
p37
I10
sVDebateFascism
p38
I532
sVforeskin_restoration
p39
I17
sVDebateAltRight
p40
I4
sVAdviceAnimals
p41
I5
sVcircumcision
p42
I31
sVeurope
p43
I82
sVfascist
p44
I8
sVMHOCMP
p45
I693
sVworldnews
p46
I1675
sVAskTrumpSupporters
p47
I19
sVnews
p48
I4
sVsex
p49
I14
sVMensLib
p50
I43
sVatheism
p51
I10
sVAskReddit
p52
I9604
sVnerdfighters
p53
I6
sVThe_Donald
p54
I311
sVMHOCMeta
p55
I86
ssI4
(dp56
Vmovies
p57
I1473
sVdetroitlions
p58
I4312
sVnfl
p59
I78634
sVCFB
p60
I21610
sVfantasyfootball
p61
I3287
ssI5
(dp62
VConservative
p63
I165
sVPoliticalDiscussion
p64
I196
sVDocumentaries
p65
I144
sVHistoryPorn
p66
I125
sVMr_Trump
p67
I32
sVWTF
p68
I333
sVfood
p69
I210
sVUpliftingNews
p70
I2187
sVtrees
p71
I301
sVthe_frauke
p72
I12
sVWhiteRights
p73
I3
sVtoosoon
p74
I12
sVgifs
p75
I6250
sVNatureIsFuckingLit
p76
I146
sVAdviceAnimals
p77
I2343
sVLibertarian
p78
I46
sVeu4
p79
I88
sVSAVEBRENDAN
p80
I152
sVStarWars
p81
I4236
sVThe_Farage
p82
I19
sVgaming
p83
I1533
sVwhitebeauty
p84
I3
sVNationalSocialism
p85
I9
sVmilliondollarextreme
p86
I50
sVbooks
p87
I1475
sVTwoXChromosomes
p88
I24
sVcanada
p89
I62
sVHillaryMeltdown
p90
I5
sV4chan
p91
I535
sVlotr
p92
I85
sVAskReddit
p93
I83133
sVLe_Pen
p94
I27
sVworldnews
p95
I17392
sVpcmasterrace
p96
I39599
sVeurope
p97
I1048
sVblackpeoplegifs
p98
I98
sVfacepalm
p99
I645
sVDarkEnlightenment
p100
I12
sVEbay
p101
I8
sVAskThe_Donald
p102
I56
sVnews
p103
I11774
sVBuffalo
p104
I20
sVThe_Donald
p105
I132207
sVPoliticalHumor
p106
I280
sVcringe
p107
I124
sVpersonalfinance
p108
I437
sVpics
p109
I15643
sVwatchpeopledie
p110
I13
sVEnoughTrumpSpam
p111
I277
sVTrueReddit
p112
I26
sVtodayilearned
p113
I2006
sVyoudontsurf
p114
I79
sVMusic
p115
I3539
sVShowerthoughts
p116
I689
sVrpg
p117
I286
sVOldSchoolCool
p118
I735
sVThe_Wilders
p119
I19
sVRedEnsign
p120
I8
sVsports
p121
I1044
sVDenmark
p122
I29
sVAnarcho_Capitalism
p123
I27
sVLifeProTips
p124
I2298
sVtelevision
p125
I3375
sVrage
p126
I64
sVworldpolitics
p127
I85
sVscience
p128
I741
sVTheRedPill
p129
I126
sVmovies
p130
I6612
sVmetacanada
p131
I45
sVhacking
p132
I20
sVMMA
p133
I30826
sVvideos
p134
I14914
sVteenagers
p135
I35
sVKotakuInAction
p136
I791
sVconspiracy
p137
I293
sVhittableFaces
p138
I13
sVpolitics
p139
I30007
sVuncensorednews
p140
I363
sVtechnology
p141
I669
sVfunny
p142
I2392
sVself
p143
I839
sVDestinyTheGame
p144
I830
sVIAmA
p145
I6362
sVThe_Europe
p146
I53
sVJeep
p147
I4
sVnottheonion
p148
I4006
sVannouncements
p149
I4214
sVWhatcouldgowrong
p150
I394
sVsjwhate
p151
I26
sVasktrp
p152
I17
sVaww
p153
I304
sVFuturology
p154
I1451
sVWikiLeaks
p155
I54
sVBannedFromThe_Donald
p156
I129
sVOverwatch
p157
I140
sVAirForce
p158
I38
sVCringeAnarchy
p159
I1572
sVspace
p160
I328
sVCFB
p161
I4806
sVatheism
p162
I349
sVTumblrInAction
p163
I1144
sVstreetwear
p164
I292
sVImGoingToHellForThis
p165
I119
ssI6
(dp166
Vworldnews
p167
I154
sVpolitics
p168
I6
ssI7
(dp169
Vcanada
p170
I89
sVspace
p171
I15
sVCringeAnarchy
p172
I126
sVRedEnsign
p173
I3
sVedefreiheit
p174
I57
sVKotakuInAction
p175
I6
sVpics
p176
I2
sVDrama
p177
I4
sVmetacanada
p178
I721
sVworldnews
p179
I704
sVThe_Donald
p180
I1687
sVtopnotchshitposting
p181
I6
sVbanned
p182
I2
ssI8
(dp183
Veuropeannationalism
p184
I2
sVvideos
p185
I2993
sVwhitebeauty
p186
I21
sVAltRightChristian
p187
I36
sVKotakuInAction
p188
I79
sVConservative
p189
I56
sVCatholicPolitics
p190
I107
sVmilliondollarextreme
p191
I214
sVLe_Pen
p192
I27
sVchangemyview
p193
I52
sVdataisbeautiful
p194
I267
sVpolitics
p195
I3053
sVuncensorednews
p196
I403
sVtechnology
p197
I306
sVDebateFascism
p198
I57
sVcanada
p199
I71
sVDebateAltRight
p200
I4037
sVAskReddit
p201
I10821
sVDocumentaries
p202
I199
sVThe_Europe
p203
I105
sVworldnews
p204
I1708
sg149
I2080
sVguns
p205
I69
sVsjwhate
p206
I38
sVCapitalismVSocialism
p207
I7
sVFuckthealtright
p208
I11
sVFuturology
p209
I586
sVUpliftingNews
p210
I811
sVDrama
p211
I17
sVTrueChristian
p212
I31
sVAskThe_Donald
p213
I5
sVWhiteRights
p214
I5
sVAskTrumpSupporters
p215
I13
sVnews
p216
I494
sVSteam
p217
I1153
sVPurplePillDebate
p218
I77
sVCringeAnarchy
p219
I130
sVpics
p220
I1411
sVatheism
p221
I318
sVThe_Farage
p222
I16
sVTumblrInAction
p223
I488
sVThe_Donald
p224
I3039
sVImGoingToHellForThis
p225
I38
sVAnarcho_Capitalism
p226
I145
ssI9
(dp227
VTumblrInAction
p228
I6
ssI10
(dp229
Vopieandanthony
p230
I159
ssI11
(dp231
VTheRedPill
p232
I146
ssI12
(dp233
Vnorge
p234
I25
ssI13
(dp235
VLifeProTips
p236
I504
sVpettyrevenge
p237
I246
sVConservative
p238
I143
sVIncels
p239
I146
sVdataisbeautiful
p240
I550
sVInternetIsBeautiful
p241
I1174
sVsmyths
p242
I10
sVGlobalOffensive
p243
I952
sVHumansBeingBros
p244
I2
sVminnesotavikings
p245
I1361
sVmandolin
p246
I3
sVquityourbullshit
p247
I278
sVShowerthoughts
p248
I5854
sVjustneckbeardthings
p249
I601
sVenvironment
p250
I128
sVtodayilearned
p251
I10889
sVwhowouldwin
p252
I325
sVwoahdude
p253
I105
sVWTF
p254
I3034
sVsoccer
p255
I585
sVtheydidthemath
p256
I110
sVaustralia
p257
I31
sVJudaism
p258
I12
sVUpliftingNews
p259
I1921
sg71
I526
sVbjj
p260
I122
sVworldpolitics
p261
I230
sVWhereIsAssange
p262
I132
sVcringepics
p263
I171
sVMilitary
p264
I70
sViamverysmart
p265
I1525
sVholdmyfries
p266
I22
sVthewalkingdead
p267
I5648
sVgifs
p268
I10013
sVnfl
p269
I4123
sVCatastrophicFailure
p270
I4
sV4chan
p271
I183
sg77
I4139
sVcompsci
p272
I12
sVRoastMe
p273
I539
sVwitcher
p274
I15
sVLibertarian
p275
I524
sVSAVEBRENDAN
p276
I321
sVStarWars
p277
I6957
sVmildlyinteresting
p278
I2810
sVnatureismetal
p279
I336
sVsouthpark
p280
I404
sVgaming
p281
I6709
sVNoMansSkyTheGame
p282
I109
sVwholesomememes
p283
I122
sVTheRedPill
p284
I66
sVmilliondollarextreme
p285
I37
sVbooks
p286
I3966
sVTwoXChromosomes
p287
I3912
sVFeMRADebates
p288
I9
sVNaruto
p289
I141
sVnba
p290
I1557
sVKarmaCourt
p291
I83
sVtifu
p292
I1594
sVfantasyfootball
p293
I570
sVwhowillbuildtheroads
p294
I2
sVDunderMifflin
p295
I66
sVNatureIsFuckingLit
p296
I107
sVshittyfoodporn
p297
I43
sVAskReddit
p298
I314137
sVPS4
p299
I637
sVmalefashionadvice
p300
I28
sVEuropeanPeoples
p301
I4
sVworldnews
p302
I35278
sVOneYearOn
p303
I2956
sVpcmasterrace
p304
I26868
sVvexillology
p305
I13
sVmath
p306
I236
sVmetalgearsolid
p307
I44
sVeurope
p308
I797
sVufc
p309
I382
sVtrashy
p310
I682
sVfacepalm
p311
I1363
sVNotTimAndEric
p312
I26
sVDrama
p313
I128
sVAskThe_Donald
p314
I25
sVAskTrumpSupporters
p315
I55
sg103
I17268
sVlewronggeneration
p316
I31
sVUnexpected
p317
I540
sVPoliticalHumor
p318
I110
sVNationalism
p319
I4
sVcreepy
p320
I468
sVuncensorednews
p321
I586
sVwatchpeopledie
p322
I60
sVbestof
p323
I150
sVBad_Cop_No_Donut
p324
I50
sVgermany
p325
I7
sVGetMotivated
p326
I1354
sVEnoughTrumpSpam
p327
I4576
sVdrunk
p328
I13
sVMr_Trump
p329
I199
sg114
I79
sV60fpsporn
p330
I36
sVthalassophobia
p331
I5
sVMusic
p332
I3505
sVDocumentaries
p333
I154
sVEarthPorn
p334
I890
sVContagiousLaughter
p335
I41
sVharrypotter
p336
I6
sVOldSchoolCool
p337
I4205
sVwestworld
p338
I4520
sg26
I50
sVtotallynotrobots
p339
I77
sVsports
p340
I1415
sVireland
p341
I131
sVraisedbynarcissists
p342
I63
sVOnStageGW
p343
I40
sVh3h3productions
p344
I592
sVhiphopheads
p345
I60
sVmildlyinfuriating
p346
I89
sVmarvelstudios
p347
I85
sVoddlysatisfying
p348
I169
sVWellthatsucks
p349
I4
sVyoutubehaiku
p350
I587
sVxboxone
p351
I5010
sVTyrannyGame
p352
I3
sVBlackPeopleTwitter
p353
I319
sVNoFap
p354
I40
sVTinder
p355
I506
sVblunderyears
p356
I530
sVtelevision
p357
I5983
sVsailing
p358
I63
sVthatHappened
p359
I102
sVscience
p360
I671
sVJustrolledintotheshop
p361
I83
sg130
I9242
sVstandupshots
p362
I14
sVsocialism
p363
I43
sVDotA2
p364
I63
sVMemeEconomy
p365
I51
sVThe_Donald
p366
I11717
sVMMA
p367
I2437
sVOnOff
p368
I96
sVvideos
p369
I19010
sVKotakuInAction
p370
I160
sVgadgets
p371
I634
sVRace_Realism
p372
I2
sVconspiracy
p373
I1910
sVDIY
p374
I1693
sVPussyPass
p375
I8
sVsamharris
p376
I25
sVpolitics
p377
I55418
sg109
I28590
sVtechnology
p378
I3205
sVkratom
p379
I41
sVDebateFascism
p380
I22
sVcollapse
p381
I82
sVHouseOfCards
p382
I4
sVfunny
p383
I10426
sVMURICA
p384
I938
sV2meirl4meirl
p385
I31
sVAskEurope
p386
I201
sVFuck2016
p387
I400
sg143
I1052
sVIAmA
p388
I20715
sVpussypassdenied
p389
I131
sVbritishproblems
p390
I172
sVnottheonion
p391
I3969
sg149
I3800
sVSRSsucks
p392
I80
sVWhatcouldgowrong
p393
I228
sVsjwhate
p394
I59
sVMapPorn
p395
I84
sVcoolguides
p396
I22
sVaww
p397
I1169
sVFuturology
p398
I6140
sVisaidyes
p399
I601
sVGames
p400
I11
sVinterestingasfuck
p401
I962
sVnintendo
p402
I5
sVhearthstone
p403
I189
sVOverwatch
p404
I1485
sVunpopularopinion
p405
I51
sVCringeAnarchy
p406
I5570
sVspace
p407
I165
sVPolitical_Revolution
p408
I163
sVSteam
p409
I1654
sVatheism
p410
I3166
sVTumblrInAction
p411
I1687
sVsadcringe
p412
I27
sVImGoingToHellForThis
p413
I1044
ssI14
(dp414
VMensRights
p415
I4
sVredditrequest
p416
I6
ssI15
(dp417
Vcanada
p418
I158
sVThe_Donald
p419
I84
ssI16
(dp420
VThe_Donald
p421
I13
ssI17
(dp422
Vpolitics
p423
I209
sVtelevision
p424
I12
ssI18
(dp425
Vaustralia
p426
I49
ssa(dp427
I0
(dp428
Vnorge
p429
I15
ssI1
(dp430
VGlobalOffensive
p431
I1455
ssI2
(dp432
Vsamharris
p433
I53
ssI3
(dp434
VCricket
p435
I7089
ssI4
(dp436
VDarkEnlightenment
p437
I6
ssI5
(dp438
Vmilliondollarextreme
p439
I481
ssI6
(dp440
VMapPorn
p441
I137
sValtnewz
p442
I2
sVrunescape
p443
I14
sVwashingtondc
p444
I164
sVinthenews
p445
I3
sVConservative
p446
I28
sVmasseffect
p447
I613
sVdataisbeautiful
p448
I1168
sVHumansBeingBros
p449
I252
sVShowerthoughts
p450
I1686
sVjustneckbeardthings
p451
I302
sVenvironment
p452
I261
sVperth
p453
I92
sVwoahdude
p454
I879
sVWTF
p455
I5328
sVAtlanta
p456
I44
sVsoccer
p457
I130
sVMensRights
p458
I3
sVaustralia
p459
I25
sVThe_Brendan
p460
I379
sVfood
p461
I325
sVde
p462
I81
sVUpliftingNews
p463
I567
sVtrees
p464
I799
sVJokes
p465
I662
sVWhiteRights
p466
I26
sVcringepics
p467
I450
sVMilitary
p468
I89
sViamverysmart
p469
I113
sVSteam
p470
I401
sVbodyweightfitness
p471
I94
sVbidenbro
p472
I329
sVgifs
p473
I13369
sVcreepyPMs
p474
I45
sVnfl
p475
I233556
sVPropagandaPosters
p476
I46
sVCrappyDesign
p477
I181
sV4chan
p478
I138
sVAdviceAnimals
p479
I4348
sVSubredditDrama
p480
I376
sVLibertarian
p481
I260
sVcringe
p482
I968
sVStarWars
p483
I1727
sVmildlyinteresting
p484
I2203
sVsjwhate
p485
I16
sVopieandanthony
p486
I39
sVinterestingasfuck
p487
I377
sVbooks
p488
I1595
sVTwoXChromosomes
p489
I4448
sVnba
p490
I24
sVcanada
p491
I1426
sVforwardsfromgrandma
p492
I105
sVCoffee
p493
I80
sVHillaryMeltdown
p494
I118
sVHillaryForPrison
p495
I522
sVwow
p496
I97
sVExpectationVsReality
p497
I471
sVmalefashionadvice
p498
I219
sVaww
p499
I4903
sVworldnews
p500
I57254
sVmemes
p501
I71
sVSarahHyland
p502
I4
sVfacepalm
p503
I1114
sVDarkEnlightenment
p504
I8
sVAskReddit
p505
I171240
sVshittyaskscience
p506
I129
sVnews
p507
I44324
sVPoliticalHumor
p508
I944
sVAnarcho_Capitalism
p509
I41
sVSandersForPresident
p510
I976
sVpersonalfinance
p511
I654
sVcreepy
p512
I538
sVuncensorednews
p513
I644
sVwatchpeopledie
p514
I280
sVHateCrimeHoaxes
p515
I15
sVcoolguides
p516
I1375
sVpcmasterrace
p517
I1473
sVTinder
p518
I11
sVEnoughTrumpSpam
p519
I3044
sVamiugly
p520
I96
sVQuotesPorn
p521
I204
sVdrunk
p522
I92
sVtodayilearned
p523
I13754
sVGreenBayPackers
p524
I14010
sVMusic
p525
I4028
sVDocumentaries
p526
I1383
sVEarthPorn
p527
I603
sVtifu
p528
I375
sVGunners
p529
I3590
sVDamnthatsinteresting
p530
I71
sVblog
p531
I5938
sVCrazyIdeas
p532
I143
sVOldSchoolCool
p533
I2692
sVDebateAltRight
p534
I16
sVSquaredCircle
p535
I48834
sVMGTOW
p536
I70
sVeurope
p537
I92
sVsubredditoftheday
p538
I143
sVsports
p539
I997
sVPhysical_Removal
p540
I8
sVireland
p541
I49
sVhockey
p542
I156
sVWhite_Pride
p543
I9
sVFloridaMan
p544
I40
sVTrumpgret
p545
I133
sVmildlyinfuriating
p546
I1817
sVoddlysatisfying
p547
I168
sVChoosingBeggars
p548
I89
sVBlackPeopleTwitter
p549
I327
sVIASIP
p550
I120
sVThe_Gaben
p551
I9809
sVwallstreetbets
p552
I2679
sVSeattleWA
p553
I354
sVtelevision
p554
I5873
sVtechsupportgore
p555
I101
sVworldpolitics
p556
I138
sVscience
p557
I2862
sVTheRedPill
p558
I3
sVmovies
p559
I4757
sVstandupshots
p560
I231
sVconspiracy
p561
I3690
sVCringeAnarchy
p562
I456
sVThe_Donald
p563
I11992
sVLifeProTips
p564
I498
sVMMA
p565
I163
sVbestof
p566
I675
sVvideos
p567
I11475
sVKotakuInAction
p568
I403
sVmillionairemakers
p569
I15399
sVgadgets
p570
I580
sVShitPoliticsSays
p571
I4
sVDIY
p572
I277
sVpolitics
p573
I89002
sVpics
p574
I42443
sVtechnology
p575
I1458
sVfunny
p576
I9196
sVMURICA
p577
I1365
sVVeterans
p578
I32
sVself
p579
I11
sVIAmA
p580
I19618
sVThe_Europe
p581
I13
sVPoliticalVideo
p582
I9
sVLosAngeles
p583
I290
sVpussypassdenied
p584
I364
sVim14andthisisdeep
p585
I7
sVnottheonion
p586
I7054
sVannouncements
p587
I1575
sVRoastMe
p588
I3119
sVgaming
p589
I11802
sVLatinoPeopleTwitter
p590
I258
sVevilbuildings
p591
I97
sVAnimalsBeingJerks
p592
I84
sVFuturology
p593
I5585
sVphilosophy
p594
I31
sVfrance
p595
I10
sVShitThe_DonaldSays
p596
I4
sVPandR
p597
I371
sVOurPresident
p598
I156
sVKenM
p599
I41
sVspace
p600
I2109
sVCFB
p601
I42578
sVPolitical_Revolution
p602
I927
sVwestworld
p603
I410
sVatheism
p604
I1823
sVTumblrInAction
p605
I1178
sVme_irl
p606
I214
sVsadcringe
p607
I343
sVImGoingToHellForThis
p608
I952
ssI7
(dp609
Vmildlyinteresting
p610
I2
sVJustNoSO
p611
I2
sVflatearth
p612
I2
sVTheImperialCult
p613
I4
sVPoliticalDiscussion
p614
I267
sVNatalism
p615
I5
sVchangemyview
p616
I17
sVclimbing
p617
I4
sVcommonfilth
p618
I16
sVDiscourseBots
p619
I2
sVbadukpolitics
p620
I5
sVDebateFascism
p621
I273
sVcanada
p622
I3
sVMURICA
p623
I133
sV2meirl4meirl
p624
I6
sVJoeRogan
p625
I26
sVaskwomenadvice
p626
I24
sVShowerthoughts
p627
I17
sVnihilism
p628
I3
sVfascist
p629
I10
sVwhowouldwin
p630
I2
sVcircumcision
p631
I17
sVwatchpeopledie
p632
I330
sVsoccer
p633
I367
sVMensRights
p634
I3
sVFuckthealtright
p635
I6
sVDenmark
p636
I64
sVukpolitics
p637
I425
sVTrueOffMyChest
p638
I2
sVMHOCMP
p639
I386
sVworldnews
p640
I1909
sVMapPorn
p641
I3
sVnews
p642
I4
sVbeyondthebump
p643
I14
sVModelMidwesternState
p644
I4
sVfo4
p645
I29
sVSeattleWA
p646
I3
sVStreetFighter
p647
I13
sVCringeAnarchy
p648
I2
sVpics
p649
I1571
sVatheism
p650
I37
sV4chan
p651
I21
sVAskReddit
p652
I101
sVdbz
p653
I86
sVDanLeBatardShow
p654
I8
sVSubredditDrama
p655
I10
sVdating_advice
p656
I3
sVAnarcho_Capitalism
p657
I4
ssI8
(dp658
VAskTrumpSupporters
p659
I24
ssI9
(dp660
Vbrisbane
p661
I13
sVConservative
p662
I41
sVwhitepeoplegifs
p663
I93
sVShowerthoughts
p664
I247
sVjustneckbeardthings
p665
I270
sg531
I5938
sVWTF
p666
I755
sVMensRights
p667
I292
sVtucker_carlson
p668
I105
sg597
I371
sVthe_frauke
p669
I13
sVWhiteRights
p670
I14
sVtoosoon
p671
I131
sVSteam
p672
I104
sVgifs
p673
I3128
sVArt
p674
I431
sVnfl
p675
I41339
sV4chan
p676
I351
sVAskReddit
p677
I103095
sVLibertarian
p678
I218
sVmildlyinteresting
p679
I1764
sVsjwhate
p680
I16
sVopieandanthony
p681
I168
sVmilliondollarextreme
p682
I89
sVbooks
p683
I158
sVTwoXChromosomes
p684
I2940
sg495
I167
sVfalcons
p685
I751
sVAdviceAnimals
p686
I1203
sVworldnews
p687
I23740
sVpcmasterrace
p688
I162
sVeurope
p689
I52
sVbestof
p690
I3
sVfacepalm
p691
I489
sVDrama
p692
I38
sVAskThe_Donald
p693
I183
sVAskTrumpSupporters
p694
I42
sVnews
p695
I29536
sVPoliticalHumor
p696
I150
sg510
I1266
sVpersonalfinance
p697
I1142
sVuncensorednews
p698
I141
sVDrugs
p699
I138
sVGetMotivated
p700
I229
sVtodayilearned
p701
I7141
sVMusic
p702
I1867
sVFirearms
p703
I101
sVWarhammer40k
p704
I24
sVenvironment
p705
I59
sVCrazyIdeas
p706
I231
sVOldSchoolCool
p707
I270
sVsavedyouaclick
p708
I58
sVDebateAltRight
p709
I20
sVsubredditoftheday
p710
I80
sVsports
p711
I215
sVPrematurecelebration
p712
I186
sVLifeProTips
p713
I663
sVBlackPeopleTwitter
p714
I119
sg460
I332
sg554
I5616
sVIncels
p715
I19
sVTheRedPill
p716
I132
sVmovies
p717
I3778
sg560
I185
sVciv
p718
I228
sVThe_Donald
p719
I165863
sVvideos
p720
I1359
sVKotakuInAction
p721
I124
sVfunny
p722
I1405
sVconspiracy
p723
I1074
sVPussyPass
p724
I8
sVpolitics
p725
I41384
sVpics
p726
I21589
sVtechnology
p727
I2028
sVasktrp
p728
I6
sVIAmA
p729
I6659
sVThe_Europe
p730
I38
sVpussypassdenied
p731
I194
sVnottheonion
p732
I2237
sg587
I1575
sVgaming
p733
I2273
sg590
I258
sVLiberalDegeneracy
p734
I2
sVaww
p735
I1154
sVFuturology
p736
I3418
sVWikiLeaks
p737
I55
sVCringeAnarchy
p738
I994
sVspace
p739
I1099
sVPolitical_Revolution
p740
I104
sVatheism
p741
I715
sVTumblrInAction
p742
I2337
sVsadcringe
p743
I10
ssI10
(dp744
Vfunny
p745
I2
sVfireblast168
p746
I238
ssI11
(dp747
VCCW
p748
I49
sVcollapse
p749
I43
sVDebateAltRight
p750
I19
sVFuturology
p751
I1340
sVDarkEnlightenment
p752
I6
sVantifa
p753
I3
sVConservative
p754
I9
sg531
I5938
sVLibertarian
p755
I328
sVAskReddit
p756
I11755
sVShitstatistssay
p757
I13
sVnihilism
p758
I2
sVweekendgunnit
p759
I59
sVworldnews
p760
I1086
sVpcmasterrace
p761
I87
sVpics
p762
I3242
sVAnarcho_Capitalism
p763
I1041
sVThe_Donald
p764
I3370
sVCapitalismVSocialism
p765
I45
ssI12
(dp766
Vpowerlifting
p767
I41
ssI13
(dp768
Veuropeannationalism
p769
I10
sg729
I4798
sVpics
p770
I2019
sVNationalSocialism
p771
I24
sVWhiteRights
p772
I16
sVTwoXChromosomes
p773
I1446
sVworldnews
p774
I344
sVnews
p775
I1021
sVThe_Donald
p776
I606
ssI14
(dp777
Vvideos
p778
I37
sVtodayilearned
p779
I2367
sVCatholicism
p780
I90
sVAltRightChristian
p781
I12
sVindia
p782
I19
sVKotakuInAction
p783
I116
sVPurplePillDebate
p784
I147
sVPoliticalDiscussion
p785
I40
sVconspiracy
p786
I10
sVDebateAnarchism
p787
I9
sVchangemyview
p788
I69
sVpolitics
p789
I40
sVDebateFascism
p790
I108
sVSRSsucks
p791
I13
sVMURICA
p792
I2
sVDebateAltRight
p793
I3336
sg729
I4798
sVAskReddit
p794
I1761
sVDocumentaries
p795
I152
sg531
I5938
sg687
I4918
sg587
I1575
sVRepublican
p796
I15
sVWhiteRights
p797
I6
sVObscureMedia
p798
I3
sVStandUpComedy
p799
I3
sVFuckthealtright
p800
I373
sVFuturology
p801
I1210
sVAgainstHateSubreddits
p802
I2
sVAskTrumpSupporters
p803
I44
sVnews
p804
I475
sVHiddenHateCrimes
p805
I11
sVCatholicPolitics
p806
I103
sVdankmemes
p807
I18
sVCringeAnarchy
p808
I83
sVnatureismetal
p809
I9
sVpunk
p810
I11
sVpics
p811
I1172
sVmovies
p812
I34
sVAdviceAnimals
p813
I264
sVThe_Donald
p814
I1372
sVAnarcho_Capitalism
p815
I119
sVparadoxplaza
p816
I3
ssI15
(dp817
VThe_Donald
p818
I13
ssI16
(dp819
Veurope
p820
I38
sVtodayilearned
p821
I1996
sVKotakuInAction
p822
I226
sVTwoXChromosomes
p823
I1407
sVpolitics
p824
I1276
sVpics
p825
I363
sVcanada
p826
I455
sVThe_Europe
p827
I49
sVAskEurope
p828
I291
sVRedEnsign
p829
I20
sVMGTOW
p830
I2499
sg729
I4798
sg531
I5938
sVdetroitlions
p831
I3295
sVmetacanada
p832
I999
sVnottheonion
p833
I613
sg587
I1575
sVMensRights
p834
I52
sVsjwhate
p835
I36
sVlondonontario
p836
I40
sVworldnews
p837
I1651
sVnews
p838
I5540
sVedefreiheit
p839
I148
sVTheRedPill
p840
I120
sVuncensorednews
p841
I119
sVAskReddit
p842
I1483
sVTumblrInAction
p843
I213
sVSubredditDrama
p844
I10
sVThe_Donald
p845
I348
sVAnarcho_Capitalism
p846
I2
ssI17
(dp847
g729
I6138
sVConservative
p848
I20
sVInternetIsBeautiful
p849
I3459
sVShowerthoughts
p850
I200
sVjustneckbeardthings
p851
I22
sg531
I5938
sVhockey
p852
I8386
sVWTF
p853
I4381
sVsvenskpolitik
p854
I4
sVthe_frauke
p855
I5
sVJokes
p856
I467
sg670
I14
sVNoStupidQuestions
p857
I150
sVcringepics
p858
I369
sVtoosoon
p859
I13
sViamverysmart
p860
I179
sVmadlads
p861
I130
sVholdmyfries
p862
I248
sVgifs
p863
I3759
sV4chan
p864
I195
sg505
I256854
sVSubredditDrama
p865
I260
sVcringe
p866
I293
sg483
I1727
sVmildlyinteresting
p867
I260
sVComedyCemetery
p868
I12
sVmilliondollarextreme
p869
I274
sVbooks
p870
I1980
sVTwoXChromosomes
p871
I1861
sVReclaimTheHolyLand
p872
I11
sVHillaryForPrison
p873
I121
sVwow
p874
I327
sVAdviceAnimals
p875
I721
sVgaming
p876
I827
sg687
I5018
sVpcmasterrace
p877
I109
sVguns
p878
I227
sVeurope
p879
I141
sVtrashy
p880
I369
sVfacepalm
p881
I287
sVDrama
p882
I134
sVJonTron
p883
I165
sVAskTrumpSupporters
p884
I5
sg838
I10426
sVundelete
p885
I15
sVcreepy
p886
I198
sVuncensorednews
p887
I822
sg519
I101
sVreddevils
p888
I2
sVtodayilearned
p889
I7138
sVwhiteknighting
p890
I68
sVMusic
p891
I253
sVaskashittydoctor
p892
I3
sVpokemon
p893
I99
sVtrendingsubreddits
p894
I58
sVOldSchoolCool
p895
I382
sVniceguys
p896
I207
sVsubredditcancer
p897
I64
sVPareidolia
p898
I63
sV3DS
p899
I9
sVFuckthealtright
p900
I363
sVLifeProTips
p901
I103
sVBlackPeopleTwitter
p902
I567
sVNintendoSwitch
p903
I3635
sVtelevision
p904
I3
sVdankmemes
p905
I100
sVrage
p906
I64
sVIncels
p907
I142
sVscience
p908
I393
sVinterestingasfuck
p909
I175
sVNorthAmerican
p910
I2
sVmovies
p911
I668
sVconspiracy
p912
I624
sVMemeEconomy
p913
I130
sVThe_Donald
p914
I15425
sVeuropeannationalism
p915
I10
sg567
I1996
sg568
I448
sVpawg
p916
I143
sVShitPoliticsSays
p917
I97
sVpolitics
p918
I7682
sVpics
p919
I11130
sg727
I1027
sVSRSsucks
p920
I18
sVasktrp
p921
I151
sVSurvival
p922
I88
sVOffensiveSpeech
p923
I9
sVThe_Europe
p924
I7
sg731
I400
sVnottheonion
p925
I5
sg587
I1575
sg680
I360
sViamverybadass
p926
I172
sVFuturology
p927
I141
sVTinder
p928
I188
sVnintendo
p929
I101
sVCringeAnarchy
p930
I8017
sg604
I545
sVTumblrInAction
p931
I1886
sVImGoingToHellForThis
p932
I1411
ssI18
(dp933
Vbakchodi
p934
I7
ssI19
(dp935
Vcringe
p936
I181
ssI20
(dp937
VThe_Donald
p938
I10104
ssI21
(dp939
Vfuckthepolice
p940
I6
ssa(dp941
I0
(dp942
VMensRights
p943
I23
sVchangemyview
p944
I10
sVpics
p945
I2
ssI1
(dp946
Vworldnews
p947
I21
sVeurope
p948
I16
sVAskReddit
p949
I3731
sVitaly
p950
I2
ssI2
(dp951
VThe_Europe
p952
I6
ssI3
(dp953
VCricket
p954
I8486
ssI4
(dp955
VLifeProTips
p956
I1721
sVConservative
p957
I191
sVmasseffect
p958
I529
sVPoliticalDiscussion
p959
I126
sVnsfw
p960
I54
sVMarchAgainstTrump
p961
I3044
sVShowerthoughts
p962
I1761
sVjustneckbeardthings
p963
I78
sVblog
p964
I207
sVthisismylifenow
p965
I60
sVwhowouldwin
p966
I194
sVhockey
p967
I1015
sVhiphopheads
p968
I305
sVMensRights
p969
I129
sVaustralia
p970
I389
sVCrusaderKings
p971
I8
sVde
p972
I324
sVUpliftingNews
p973
I1052
sVtrees
p974
I487
sVJokes
p975
I1485
sVFellowKids
p976
I187
sVLiberal
p977
I80
sVrickandmorty
p978
I112
sVSteam
p979
I292
sVhalo
p980
I79
sVgifs
p981
I10735
sVArt
p982
I669
sVnfl
p983
I75593
sV4chan
p984
I142
sVAskReddit
p985
I157618
sVSubredditDrama
p986
I1069
sVLibertarian
p987
I195
sVAnarcho_Capitalism
p988
I24
sVmildlyinteresting
p989
I3570
sVxboxone
p990
I6311
sVcanada
p991
I696
sVforwardsfromgrandma
p992
I72
sVspace
p993
I1355
sVfalcons
p994
I893
sVAdviceAnimals
p995
I1078
sVworldnews
p996
I35456
sVeurope
p997
I1198
sVbestof
p998
I424
sVtrashy
p999
I1054
sVfacepalm
p1000
I174
sVDrama
p1001
I58
sVOSHA
p1002
I116
sVberkeley
p1003
I214
sVnews
p1004
I31038
sVUnexpected
p1005
I157
sVPoliticalHumor
p1006
I230
sVenvironment
p1007
I180
sVuncensorednews
p1008
I616
sVSquaredCircle
p1009
I4731
sVEnoughTrumpSpam
p1010
I994
sVaudioengineering
p1011
I5
sVtodayilearned
p1012
I10106
sVthalassophobia
p1013
I7
sVMusic
p1014
I3407
sVEarthPorn
p1015
I404
sVtifu
p1016
I863
sVDamnthatsinteresting
p1017
I229
sVDnD
p1018
I73
sVloseit
p1019
I109
sVOldSchoolCool
p1020
I2424
sVANormalDayInRussia
p1021
I64
sVsports
p1022
I704
sVireland
p1023
I24
sVexplainlikeimfive
p1024
I4
sVFuckthealtright
p1025
I760
sVDenmark
p1026
I73
sVTrumpgret
p1027
I290
sVMapPorn
p1028
I621
sVBlackPeopleTwitter
p1029
I863
sVinstant_regret
p1030
I249
sVNintendoSwitch
p1031
I2305
sVtelevision
p1032
I6441
sVscience
p1033
I1936
sVmovies
p1034
I6959
sVmetacanada
p1035
I22
sVThe_Donald
p1036
I5956
sVMMA
p1037
I518
sVvideos
p1038
I8582
sVFoodPorn
p1039
I265
sVKotakuInAction
p1040
I345
sVmillionairemakers
p1041
I22492
sVconspiracy
p1042
I1553
sVpolitics
p1043
I45038
sVpics
p1044
I21204
sVtechnology
p1045
I1432
sVfunny
p1046
I5165
sVMURICA
p1047
I204
sVIAmA
p1048
I15086
sVEmpireDidNothingWrong
p1049
I35
sVnottheonion
p1050
I1629
sVannouncements
p1051
I1965
sVgetdisciplined
p1052
I548
sVgaming
p1053
I7763
sViamverybadass
p1054
I549
sVaww
p1055
I88
sVFuturology
p1056
I2757
sVTopMindsOfReddit
p1057
I374
sVTinder
p1058
I320
sVBannedFromThe_Donald
p1059
I858
sVOverwatch
p1060
I1250
sVunpopularopinion
p1061
I22
sVCringeAnarchy
p1062
I351
sVwestworld
p1063
I95
sVGetMotivated
p1064
I327
sVatheism
p1065
I819
sVImGoingToHellForThis
p1066
I131
ssI5
(dp1067
VEnoughTrumpSpam
p1068
I864
sVpuffitup
p1069
I3
sVvideos
p1070
I2107
sVtodayilearned
p1071
I2847
sVmallninjashit
p1072
I2
sVbicyclecss
p1073
I2
sVmilliondollarextreme
p1074
I121
sVShitPoliticsSays
p1075
I142
sVpics
p1076
I162
sVDebateFascism
p1077
I2
sVcollapse
p1078
I13
sVHouseOfCards
p1079
I2
sVasktrp
p1080
I34
sVsociopath
p1081
I29
sVJustUnsubbed
p1082
I3
sVquityourbullshit
p1083
I258
sVIAmA
p1084
I11246
sVsubredditoftheday
p1085
I2
sVTumblrInAction
p1086
I789
sVBikiniBottomTwitter
p1087
I33
sVWTF
p1088
I96
sVsaplings
p1089
I3
sVreddevils
p1090
I4940
sVsvenskpolitik
p1091
I14
sVFallout
p1092
I100
sVcars
p1093
I3
sVWatchRedditDie
p1094
I2
sVcaps
p1095
I3
sVNotMyJob
p1096
I2
sVRateme
p1097
I3
sg981
I1667
sVdankmemes
p1098
I15
sVundelete
p1099
I12
sVCringeAnarchy
p1100
I2907
sVEDH
p1101
I56
sVWriteresearch
p1102
I3
sVuncensorednews
p1103
I2
sVGlitch_in_the_Matrix
p1104
I2
sVAskReddit
p1105
I18304
sVconspiracy
p1106
I5
sVcringe
p1107
I6
ssI6
(dp1108
Vconspiracy
p1109
I117
ssI7
(dp1110
VMensRights
p1111
I30
sVsjwhate
p1112
I177
sVundelete
p1113
I105
sVMGTOW
p1114
I2990
sVsubredditcancer
p1115
I12
sVDebateAltRight
p1116
I5
sVedefreiheit
p1117
I37
sVTheRedPill
p1118
I129
sVKotakuInAction
p1119
I251
sVpics
p1120
I1739
sVPurplePillDebate
p1121
I56
sV4chan
p1122
I147
sVMusic
p1123
I1672
sVWhiteRights
p1124
I78
sVpolitics
p1125
I3097
sVAskTrumpSupporters
p1126
I38
sVwatchpeopledie
p1127
I6
sVuncensorednews
p1128
I1397
sVesist
p1129
I927
sVtodayilearned
p1130
I298
ssI8
(dp1131
Vcanada
p1132
I535
sVRedEnsign
p1133
I31
sVmetacanada
p1134
I857
sVThe_Donald
p1135
I75
sVAskReddit
p1136
I16021
ssI9
(dp1137
VThe_Donald
p1138
I6
ssI10
(dp1139
VCringeAnarchy
p1140
I64
sVPussyPass
p1141
I19
ssI11
(dp1142
VPublicFreakout
p1143
I137
sVConservative
p1144
I94
sVPoliticalDiscussion
p1145
I2
sVdbz
p1146
I606
sVtheredpillright
p1147
I13
sVliberalstupidity
p1148
I4
sVMarchAgainstTrump
p1149
I493
sVjustneckbeardthings
p1150
I123
sVWTF
p1151
I1016
sVsoccer
p1152
I652
sVMensRights
p1153
I120
sVde
p1154
I60
sVUpliftingNews
p1155
I22
sVJokes
p1156
I464
sVFellowKids
p1157
I6
sg1124
I38
sVnyc
p1158
I27
sVmadlads
p1159
I74
sVgifs
p1160
I1984
sVSargonofAkkad
p1161
I20
sVnfl
p1162
I67746
sVguns
p1163
I43
sV4chan
p1164
I195
sg985
I40154
sVGirlsMirin
p1165
I6
sg986
I1176
sVLibertarian
p1166
I76
sVSeattle
p1167
I54
sVgaming
p1168
I1660
sVstarterpacks
p1169
I285
sVmilliondollarextreme
p1170
I84
sVbooks
p1171
I1243
sVcanada
p1172
I1886
sVAdviceAnimals
p1173
I2013
sVmetacanada
p1174
I23
sVLe_Pen
p1175
I16
sVworldnews
p1176
I11757
sVvexillology
p1177
I40
sVeurope
p1178
I717
sg998
I240
sVtrashy
p1179
I780
sVNYYankees
p1180
I8
sVMemeEconomy
p1181
I275
sVDrama
p1182
I679
sVAskTrumpSupporters
p1183
I26
sVnews
p1184
I11834
sVPoliticalHumor
p1185
I887
sVundelete
p1186
I24
sVuncensorednews
p1187
I1112
sVwatchpeopledie
p1188
I156
sVJoeRogan
p1189
I1504
sVtodayilearned
p1190
I2211
sg1123
I1672
sVFireEmblemHeroes
p1191
I8099
sVtifu
p1192
I619
sVProRevenge
p1193
I133
sVCrazyIdeas
p1194
I89
sVDebateAltRight
p1195
I24
sVtotallynotrobots
p1196
I71
sVsports
p1197
I270
sVsubredditcancer
p1198
I49
sVPhysical_Removal
p1199
I11
sVInfowars
p1200
I2
sVh3h3productions
p1201
I271
sVjustlegbeardthings
p1202
I46
sVLifeProTips
p1203
I2473
sVShitty_Car_Mods
p1204
I272
sVtelevision
p1205
I3764
sVtechsupportgore
p1206
I156
sVworldpolitics
p1207
I42
sVmovies
p1208
I1551
sVconspiracy
p1209
I1669
sVfreeuse
p1210
I105
sVThe_Donald
p1211
I118730
sVMMA
p1212
I9197
sVrussia
p1213
I8
sVeuropeannationalism
p1214
I3
sVvideos
p1215
I1405
sVAltRightChristian
p1216
I3
sVKotakuInAction
p1217
I188
sg1041
I22492
sVShitPoliticsSays
p1218
I8
sVweekendgunnit
p1219
I140
sVPussyPass
p1220
I17
sVpolitics
p1221
I15933
sg1120
I5450
sVtechnology
p1222
I2770
sVWayOfTheBern
p1223
I5
sVpussypassdenied
p1224
I123
sVnottheonion
p1225
I1255
sVannouncements
p1226
I1958
sVsjwhate
p1227
I324
sVintrusivethoughts
p1228
I8
sVFuturology
p1229
I999
sVTheDickShow
p1230
I15
sVWikiLeaks
p1231
I15
sVBannedFromThe_Donald
p1232
I697
sVCringeAnarchy
p1233
I2451
sVPolitical_Revolution
p1234
I177
sVTumblrInAction
p1235
I2726
sVShittyLifeProTips
p1236
I43
sVImGoingToHellForThis
p1237
I108
ssI12
(dp1238
VDebateAltRight
p1239
I26
sVAskReddit
p1240
I5696
sVconspiracy
p1241
I5
ssI13
(dp1242
Vopieandanthony
p1243
I74
ssI14
(dp1244
Vvideos
p1245
I14
sVtodayilearned
p1246
I14
sVCatholicism
p1247
I38
sVAltRightChristian
p1248
I21
sVWhiteNationalism
p1249
I2
sVCatholicPolitics
p1250
I154
sVconspiracy
p1251
I10
sVMusic
p1252
I54
sVPussyPass
p1253
I53
sg1008
I78
sVDebateFascism
p1254
I180
sVtrashy
p1255
I415
sVTrueReddit
p1256
I32
sVDebateAltRight
p1257
I2599
sVMarchAgainstTrump
p1258
I725
sVPoliticalVideo
p1259
I8
sVTrueChristian
p1260
I14
sVeurope
p1261
I1070
sVCapitalismVSocialism
p1262
I9
sVFuckthealtright
p1263
I55
sVDarkEnlightenment
p1264
I4
sVKotakuInAction
p1265
I140
sVTiADiscussion
p1266
I23
sVgamingsuggestions
p1267
I11
sVmealtimevideos
p1268
I8
sVIdentitarians
p1269
I5
sVCringeAnarchy
p1270
I55
sVpics
p1271
I1092
sV4chan
p1272
I56
sVAskReddit
p1273
I3172
sVlastweektonight
p1274
I15
sVThe_Donald
p1275
I5141
sVTheAltRight
p1276
I5
sVAnarcho_Capitalism
p1277
I175
sg1129
I927
sVWhiteRights
p1278
I209
ssI15
(dp1279
Valternative_right
p1280
I4
ssI16
(dp1281
Vchangemyview
p1282
I18
ssI17
(dp1283
Vsjwhate
p1284
I36
sVCapitalismVSocialism
p1285
I100
sVDebateAltRight
p1286
I18
sVscience
p1287
I30
sVDarkEnlightenment
p1288
I7
sVAskReddit
p1289
I10152
sVpics
p1290
I390
sVtodayilearned
p1291
I9
sVUofT
p1292
I6
sVTumblrInAction
p1293
I216
sVPussyPass
p1294
I12
sVpolitics
p1295
I405
sVLibertarian
p1296
I408
sVnews
p1297
I14
sVAnarcho_Capitalism
p1298
I1972
sVGoldandBlack
p1299
I120
sVconspiracy
p1300
I4
ssI18
(dp1301
VMHOC
p1302
I7
sVtelevision
p1303
I153
sVOldSchoolCool
p1304
I237
sVfascist
p1305
I5
sVpics
p1306
I1147
sVMHOCMP
p1307
I1027
sVThe_Europe
p1308
I7
sVDebateAnarchism
p1309
I2
sVPussyPass
p1310
I7
sVukpolitics
p1311
I221
sg1182
I87
sVDebateFascism
p1312
I348
ssI19
(dp1313
Vaustralia
p1314
I5
ssI20
(dp1315
Vniceguys
p1316
I40
ssI21
(dp1317
VIncel
p1318
I7
ssa(dp1319
I0
(dp1320
VMensRights
p1321
I24
ssI1
(dp1322
Vmildlyinteresting
p1323
I1955
sVeuropeannationalism
p1324
I10
sVvideos
p1325
I4721
sVdrunk
p1326
I340
sVtodayilearned
p1327
I3543
sVPublicFreakout
p1328
I3
sVwifesharing
p1329
I1977
sVCatholicPolitics
p1330
I27
sVmasseffect
p1331
I78
sVShitPoliticsSays
p1332
I10
sVdataisbeautiful
p1333
I238
sVgifs
p1334
I2671
sVpolitics
p1335
I10863
sVpics
p1336
I12165
sVtechnology
p1337
I1690
sVxboxone
p1338
I117382
sVTumblrInAction
p1339
I2519
sVAskAnAmerican
p1340
I468
sVHillaryMeltdown
p1341
I14
sVOldSchoolCool
p1342
I271
sVHillaryForPrison
p1343
I36
sVDebateAltRight
p1344
I29
sVquityourbullshit
p1345
I199
sVRedEnsign
p1346
I2
sVIAmA
p1347
I921
sVAdviceAnimals
p1348
I788
sVDocumentaries
p1349
I1275
sVjustneckbeardthings
p1350
I43
sVThe_Europe
p1351
I17
sVPhysical_Removal
p1352
I18
sVmetacanada
p1353
I17
sVLe_Pen
p1354
I48
sVscifi
p1355
I480
sVWTF
p1356
I363
sV4chan
p1357
I37
sVworldnews
p1358
I9932
sVexplainlikeimfive
p1359
I111
sVDiWHY
p1360
I170
sVMensRights
p1361
I34
sVgaming
p1362
I430
sVtucker_carlson
p1363
I672
sVTendies
p1364
I5
sVAdamCarolla
p1365
I27
sVThe_Donald_CA
p1366
I6
sVfunny
p1367
I1011
sVFuckthealtright
p1368
I300
sVatheism
p1369
I161
sVFuturology
p1370
I2126
sVfacepalm
p1371
I775
sVteslamotors
p1372
I250
sVTrumpgret
p1373
I167
sVCinemagraphs
p1374
I20
sVDrama
p1375
I295
sVnottheonion
p1376
I1778
sVJonTron
p1377
I1092
sVKotakuInAction
p1378
I108
sVLifeProTips
p1379
I502
sVBlackPeopleTwitter
p1380
I69
sVAskTrumpSupporters
p1381
I17
sVnews
p1382
I3606
sViamverysmart
p1383
I584
sVPurplePillDebate
p1384
I43
sVtelevision
p1385
I280
sVmovies
p1386
I4163
sVshittyrobots
p1387
I504
sVsjwhate
p1388
I93
sVde
p1389
I198
sVCapitalismVSocialism
p1390
I28
sVCringeAnarchy
p1391
I861
sVSandersForPresident
p1392
I222
sVPoliticalHumor
p1393
I459
sVuncensorednews
p1394
I180
sVScottishPeopleTwitter
p1395
I423
sVtheredpillright
p1396
I17
sVAskReddit
p1397
I38292
sVconspiracy
p1398
I1907
sVHateCrimeHoaxes
p1399
I37
sVbestof
p1400
I202
sVOverwatch
p1401
I1540
sVThe_Donald
p1402
I114707
sVesist
p1403
I2124
sVWarhammer
p1404
I53
ssI2
(dp1405
VEDC
p1406
I5
sVWildlands
p1407
I2
ssI3
(dp1408
VCricket
p1409
I13149
ssI4
(dp1410
VThe_Donald
p1411
I338
ssI5
(dp1412
VDenmark
p1413
I18
ssI6
(dp1414
Vak47
p1415
I18
ssI7
(dp1416
Vcanada
p1417
I27
sVCringeAnarchy
p1418
I107
sg1378
I177
sVthe_frauke
p1419
I8
sVmetacanada
p1420
I299
sVThe_Donald
p1421
I3
ssI8
(dp1422
Vme_irl
p1423
I9781
sVdankmemes
p1424
I101
ssI9
(dp1425
Vredditrequest
p1426
I3
sVuncensorednews
p1427
I135
sVPhysical_Removal
p1428
I7
sg1355
I480
sVPussyPass
p1429
I125
sVLibertarian
p1430
I85
sVAnarcho_Capitalism
p1431
I920
sVGoldandBlack
p1432
I9
sVWhiteRights
p1433
I8
ssI10
(dp1434
Vdrunk
p1435
I545
sVChoosingBeggars
p1436
I125
sVComedyCemetery
p1437
I9
sVtodayilearned
p1438
I799
sVCatholicism
p1439
I9
sVKotakuInAction
p1440
I65
sVCatholicPolitics
p1441
I10
sVmasseffect
p1442
I164
sVwhiteknighting
p1443
I23
sVShitPoliticsSays
p1444
I24
sVMusic
p1445
I10710
sVPussyPass
p1446
I25
sVmulticulturalcancer
p1447
I3
sVSRSsucks
p1448
I34
sVDnD
p1449
I181
sVmovies
p1450
I2908
sVAskEurope
p1451
I188
sVtotallynotrobots
p1452
I67
sVself
p1453
I427
sVMarchAgainstTrump
p1454
I394
sVShowerthoughts
p1455
I621
sVjustneckbeardthings
p1456
I69
sVPussyPassNeutral
p1457
I4
sVmodnews
p1458
I291
sVworldnews
p1459
I960
sVreddevils
p1460
I44
sVpcmasterrace
p1461
I718
sVCollegeBasketball
p1462
I1036
sVeurope
p1463
I89
sVjustlegbeardthings
p1464
I24
sg1363
I672
sVtrashy
p1465
I112
sVfunny
p1466
I403
sVaww
p1467
I2934
sVtelevision
p1468
I1392
sVMapPorn
p1469
I27
sVMurderedByWords
p1470
I4
sVcarlhprogramming
p1471
I9
sViamverysmart
p1472
I909
sVbadwomensanatomy
p1473
I41
sVbidenbro
p1474
I246
sVGamecocks
p1475
I21
sg1334
I2316
sVsjwhate
p1476
I84
sVunpopularopinion
p1477
I125
sVdankmemes
p1478
I20
sVIncels
p1479
I31
sVCringeAnarchy
p1480
I7249
sVpics
p1481
I339
sV4chan
p1482
I13
sVAskReddit
p1483
I177603
sg1339
I1180
sVthatHappened
p1484
I513
sVHateCrimeHoaxes
p1485
I5
sVbestof
p1486
I5
sVukpolitics
p1487
I70
sVThe_Donald
p1488
I390
sVImGoingToHellForThis
p1489
I224
ssI11
(dp1490
Vcats
p1491
I79
sVAnarcho_Capitalism
p1492
I23
ssI12
(dp1493
Vkpop
p1494
I5
sVTeam_CoCo
p1495
I4
sVLiveFromNewYork
p1496
I10
sVPurplePillDebate
p1497
I44
sVdemocrats
p1498
I2
sVZoomies
p1499
I7
sVDocumentaries
p1500
I7
sVFrisson
p1501
I2
sVKappa
p1502
I5
sVPoliticalVideo
p1503
I17
sVWhiteRights
p1504
I57
sVbap
p1505
I5
sVtwice
p1506
I4
sVpanelshow
p1507
I9
sVmashups
p1508
I3
sVLOONA
p1509
I2
sVAnarcho_Capitalism
p1510
I3
sVuberdrivers
p1511
I10
sVSaints
p1512
I4
sVDenver
p1513
I16
sVopieandanthony
p1514
I16
sVtrueMusic
p1515
I3
sVNationalSocialism
p1516
I6
sVchangemyview
p1517
I117
sVBerserk
p1518
I3
sVmovies
p1519
I2
sVday6
p1520
I2
sVWarthunder
p1521
I7
sVRomeo
p1522
I2
sVBABYMETAL
p1523
I18
sVGuiltyPleasureMusic
p1524
I7
sV90sAlternative
p1525
I2
sVDailyShow
p1526
I5
sVrickygervais
p1527
I4
sVJonTron
p1528
I68
sVainbow
p1529
I6
sVyoutubehaiku
p1530
I4
sVPoliticalHumor
p1531
I6
sVRedditDayOf
p1532
I2
sVfivestars
p1533
I3
sVuncensorednews
p1534
I40
sVthat_Poppy
p1535
I3
sVPlanetside
p1536
I8
sVlastweektonight
p1537
I18
sVreactclinks
p1538
I2
sVGenderCritical
p1539
I5
sVparadoxplaza
p1540
I3
sVcoversongs
p1541
I2
sVtodayilearned
p1542
I247
sVBuddhism
p1543
I7
sVMusic
p1544
I9
sVPoliticalVideos
p1545
I9
sVTheRedPill
p1546
I6
sVDebateAltRight
p1547
I2032
sVFlashTV
p1548
I7
sVunexpectedjihad
p1549
I4
sVsmtown
p1550
I2
sVChildrenFallingOver
p1551
I6
sVcollapse
p1552
I8
sVhapas
p1553
I6
sVJusticeServed
p1554
I7
sVPUBATTLEGROUNDS
p1555
I4
sVNintendoSwitch
p1556
I17
sVfunk
p1557
I3
sVfurry_irl
p1558
I4
sVBTOB
p1559
I9
sVMusicthemetime
p1560
I6
sVholocaust
p1561
I4
sVThe_Donald
p1562
I798
sVvideos
p1563
I37
sVGFRIEND
p1564
I8
sVconspiracy
p1565
I5
sVPussyPass
p1566
I301
sVlorde
p1567
I7
sVpolitics
p1568
I1567
sVpics
p1569
I1568
sVDebateFascism
p1570
I949
sVself
p1571
I10
sVJazz
p1572
I2
sg1347
I921
sVCoachella
p1573
I5
sVsixthworldmusic
p1574
I2
sVProduce101
p1575
I2
sVdrunkenpeasants
p1576
I9
sVsjwhate
p1577
I2
sVgagconcert
p1578
I3
sVpaintball
p1579
I3
sVmealtimevideos
p1580
I6
sVDrizzy
p1581
I2
sVinternetclassics
p1582
I2
sVjakeandamir
p1583
I4
sVScarlettJohansson
p1584
I2
sVTumblrInAction
p1585
I347
sVculturalstudies
p1586
I2
sVspeedrun
p1587
I2
ssI13
(dp1588
g1467
I1526
sVtelevision
p1589
I607
ssI14
(dp1590
VIncels
p1591
I45
ssI15
(dp1592
Vweekendgunnit
p1593
I10
ssI16
(dp1594
Vasktrp
p1595
I16
sVTheRedPill
p1596
I13
ssI17
(dp1597
VLifeProTips
p1598
I2685
sVBitcoin
p1599
I365
sVrupaulsdragrace
p1600
I33
sVConservative
p1601
I162
sg1387
I504
sVdataisbeautiful
p1602
I10057
sVMarchAgainstTrump
p1603
I2045
sVminnesota
p1604
I530
sg1349
I1275
sVenvironment
p1605
I60
sVMemeEconomy
p1606
I121
sVwoahdude
p1607
I93
sVhiphopheads
p1608
I8843
sVsoccer
p1609
I10279
sVShitThe_DonaldSays
p1610
I4
sVfood
p1611
I912
sVUpliftingNews
p1612
I797
sVJokes
p1613
I296
sVBlackout2015
p1614
I7
sg1395
I423
sViamverysmart
p1615
I167
sVrickandmorty
p1616
I59
sVvegetablegardening
p1617
I2
sg1474
I246
sVgifs
p1618
I9377
sVArt
p1619
I533
sVedefreiheit
p1620
I16
sVNatureIsFuckingLit
p1621
I177
sVAskReddit
p1622
I101850
sVSubredditDrama
p1623
I211
sVResinCasting
p1624
I3
sVLibertarian
p1625
I7
sVAnarcho_Capitalism
p1626
I14
sg1403
I2601
sVmildlyinteresting
p1627
I1879
sVMechanicalKeyboards
p1628
I6626
sg1338
I125860
sVopieandanthony
p1629
I639
sVbooks
p1630
I916
sVKotakuInAction
p1631
I369
sVshitpost
p1632
I6
sVnba
p1633
I236
sVPS4
p1634
I184
sVaskaconservative
p1635
I76
sV4chan
p1636
I362
sVWTF
p1637
I2170
sg1348
I1689
sVworldnews
p1638
I21377
sVpcmasterrace
p1639
I117
sVRepublican
p1640
I8
sVeurope
p1641
I549
sVfacepalm
p1642
I471
sVtrashy
p1643
I361
sVEconomics
p1644
I8
sVFrugal
p1645
I234
sVJonTron
p1646
I852
sVnews
p1647
I9033
sVUnexpected
p1648
I263
sVPoliticalHumor
p1649
I644
sVSandersForPresident
p1650
I195
sVprogramming
p1651
I2
sVpersonalfinance
p1652
I267
sVpics
p1653
I20473
sVwatchpeopledie
p1654
I102
sVNautical
p1655
I2
sVKeepOurNetFree
p1656
I2
sVMealPrepSunday
p1657
I3
sVEnoughTrumpSpam
p1658
I195
sVGunpla
p1659
I2
sg1435
I890
sVtodayilearned
p1660
I4918
sVthalassophobia
p1661
I46
sVdogpictures
p1662
I47
sVseinfeld
p1663
I338
sVShowerthoughts
p1664
I157
sVtifu
p1665
I492
sVniceguys
p1666
I99
sVOldSchoolCool
p1667
I536
sVSquaredCircle
p1668
I11579
sVAmd
p1669
I17932
sVsports
p1670
I718
sVPhysical_Removal
p1671
I3
sVmisleadingthumbnails
p1672
I37
sVjerky
p1673
I3
sVholdmybeer
p1674
I287
sVcollapse
p1675
I19
sVmarvelstudios
p1676
I110
sVoddlysatisfying
p1677
I360
sVJusticeServed
p1678
I473
sVAwwducational
p1679
I5
sVBlackPeopleTwitter
p1680
I388
sVphr4r
p1681
I4
sVinstant_regret
p1682
I538
sVNintendoSwitch
p1683
I12919
sVrage
p1684
I9
sg1484
I673
sVscience
p1685
I1271
sVGrandForks
p1686
I2
sg1386
I5395
sVconspiracy
p1687
I668
sVforhonor
p1688
I116
sVThe_Donald
p1689
I2510
sVMMA
p1690
I13486
sVBustyPetite
p1691
I54
sVweekendgunnit
p1692
I7
sVvideos
p1693
I13039
sVFoodPorn
p1694
I54
sVboston
p1695
I4
sVarabs
p1696
I43
sVsolotravel
p1697
I2
sVteenagers
p1698
I38
sg1329
I1977
sVmillionairemakers
p1699
I15078
sVShitPoliticsSays
p1700
I5
sVDIY
p1701
I1120
sVpolitics
p1702
I42644
sVtechnology
p1703
I3463
sVsouthpark
p1704
I26
sVfunny
p1705
I3853
sVTopMindsOfReddit
p1706
I2
sVHighQualityGifs
p1707
I307
sVThe_Europe
p1708
I2
sg1355
I480
sVnottheonion
p1709
I5367
sVannouncements
p1710
I3639
sVrollerblading
p1711
I4
sVgaming
p1712
I2306
sVaww
p1713
I935
sVFuturology
p1714
I656
sVukpolitics
p1715
I2
sVTinder
p1716
I4
sVhearthstone
p1717
I1069
sVOurPresident
p1718
I140
sVCringeAnarchy
p1719
I1227
sVspace
p1720
I414
sVPolitical_Revolution
p1721
I51
sVatheism
p1722
I737
sVTumblrInAction
p1723
I1082
sVShittyLifeProTips
p1724
I3
sVme_irl
p1725
I12259
sVsadcringe
p1726
I506
sVImGoingToHellForThis
p1727
I6
ssa.